ccopy_reg
_reconstructor
p0
(csklearn.pipeline
Pipeline
p1
c__builtin__
object
p2
Ntp3
Rp4
(dp5
S'_sklearn_version'
p6
S'0.18'
p7
sS'steps'
p8
(lp9
(S'col_select'
p10
g0
(c__main__
categoryTransformer
p11
g2
Ntp12
Rp13
(dp14
S'colname'
p15
(lp16
S'sqft'
p17
aS'br'
p18
aS'ba'
p19
asbtp20
a(S'imp'
p21
g0
(csklearn.preprocessing.imputation
Imputer
p22
g2
Ntp23
Rp24
(dp25
S'strategy'
p26
S'median'
p27
sS'axis'
p28
I0
sS'verbose'
p29
I0
sg6
g7
sS'copy'
p30
I01
sS'missing_values'
p31
S'NaN'
p32
sbtp33
a(S'lin'
p34
g0
(csklearn.linear_model.base
LinearRegression
p35
g2
Ntp36
Rp37
(dp38
S'normalize'
p39
I00
sS'copy_X'
p40
I01
sS'n_jobs'
p41
I1
sg6
g7
sS'fit_intercept'
p42
I01
sbtp43
asb.