ccopy_reg
_reconstructor
p0
(cpandas.core.frame
DataFrame
p1
c__builtin__
object
p2
Ntp3
Rp4
(dp5
S'_metadata'
p6
(lp7
sS'_typ'
p8
S'dataframe'
p9
sS'_data'
p10
g0
(cpandas.core.internals
BlockManager
p11
g2
Ntp12
Rp13
((lp14
cpandas.indexes.base
_new_Index
p15
(cpandas.indexes.base
Index
p16
(dp17
S'data'
p18
cnumpy.core.multiarray
_reconstruct
p19
(cnumpy
ndarray
p20
(I0
tp21
S'b'
p22
tp23
Rp24
(I1
(I2
tp25
cnumpy
dtype
p26
(S'O8'
p27
I0
I1
tp28
Rp29
(I3
S'|'
p30
NNNI-1
I-1
I63
tp31
bI00
(lp32
S'url'
p33
aS'lat_lon'
p34
atp35
bsS'name'
p36
Nstp37
Rp38
ag15
(cpandas.indexes.multi
MultiIndex
p39
(dp40
S'labels'
p41
(lp42
g19
(cpandas.core.base
FrozenNDArray
p43
(I0
tp44
g22
tp45
Rp46
(I1
(I420
tp47
g26
(S'i1'
p48
I0
I1
tp49
Rp50
(I3
S'|'
p51
NNNI-1
I-1
I0
tp52
bI00
S'\x00\x00\x00\x00\x00\x00\x00\x00\x00\x01\x01\x01\x01\x02\x02\x02\x02\x02\x02\x02\x02\x03\x03\x03\x03\x03\x04\x04\x04\x04\x04\x04\x04\x04\x04\x04\x04\x04\x04\x04\x04\x04\x04\x04\x04\x04\x04\x04\x04\x04\x04\x04\x04\x04\x05\x05\x05\x05\x05\x05\x05\x05\x06\x06\x06\x06\x07\x08\t\t\t\t\t\t\t\t\t\t\t\t\t\t\t\t\t\t\t\t\t\t\t\t\n\n\n\n\n\n\n\n\n\n\n\x0b\x0c\x0c\x0c\x0c\r\r\r\r\r\r\r\r\r\r\r\x0e\x0e\x0e\x0e\x0e\x0e\x0e\x0e\x0e\x0e\x0f\x0f\x0f\x0f\x0f\x0f\x0f\x0f\x0f\x0f\x0f\x10\x10\x10\x10\x10\x10\x10\x10\x11\x11\x11\x11\x11\x11\x12\x12\x12\x12\x12\x12\x12\x12\x13\x14\x14\x14\x14\x14\x14\x15\x15\x15\x15\x15\x16\x16\x16\x16\x16\x16\x16\x16\x16\x16\x16\x16\x16\x16\x16\x16\x16\x16\x17\x17\x17\x17\x17\x17\x17\x17\x18\x18\x18\x18\x18\x18\x19\x19\x19\x19\x19\x19\x19\x19\x19\x1a\x1a\x1a\x1a\x1a\x1a\x1a\x1a\x1b\x1b\x1b\x1b\x1b\x1c\x1c\x1c\x1d\x1e\x1e\x1e\x1e\x1f\x1f\x1f\x1f\x1f\x1f                    !!!!!!!!!!!!""""###############$$$$$%%%%%%%%%%&&&&&&&&&&&&&&&\'(((((()))))********+++,,,,,,,,,,,,,,,,,,,,,,,,,,,-----.///////////000000000011111111222222222223'
p53
tp54
bag19
(g43
(I0
tp55
g22
tp56
Rp57
(I1
(I420
tp58
g26
(S'i2'
p59
I0
I1
tp60
Rp61
(I3
S'<'
p62
NNNI-1
I-1
I0
tp63
bI00
S'\x12\x00\x1f\x00X\x00t\x00\x7f\x00\x9f\x00\xe6\x00\xec\x00~\x01\t\x00k\x00\xb1\x00X\x01q\x00\xe8\x00\x19\x01!\x01J\x01L\x01|\x01\xa2\x01o\x00y\x00\xac\x00\xcc\x00u\x01\x15\x00=\x00}\x00\x83\x00\x8e\x00\x9d\x00\xa0\x00\xa2\x00\xcf\x00\xdf\x00\xe0\x00\xe7\x00\xeb\x00\r\x01\x13\x01*\x015\x01<\x01=\x01>\x01A\x01C\x01O\x01o\x01p\x01\x86\x01\x89\x01\xa1\x01&\x00D\x00U\x00]\x00v\x00\x97\x00#\x01\x95\x01^\x00\x91\x00\xf4\x00\x01\x01T\x00\x8b\x01*\x00P\x00u\x00x\x00~\x00\x80\x00\x94\x00\xa8\x00\xbf\x00\xe2\x00\xf8\x00\x05\x01\x08\x01\x0f\x01\x14\x01\x16\x01D\x01T\x01c\x01g\x01r\x01s\x01z\x01\x12\x01\x04\x00\x0f\x00\x11\x00\x13\x00,\x00H\x00\xd3\x00\x02\x01E\x01m\x01\x85\x01\x93\x00#\x00[\x00\xc8\x00\x80\x01"\x005\x00<\x00Q\x00\xba\x00\xda\x00\x17\x012\x01[\x01f\x01\x91\x01!\x00j\x00z\x00\xa1\x00\xb8\x00\xbc\x00\xef\x00.\x01Q\x01t\x01\x08\x001\x00V\x00Y\x00w\x00\xa3\x00\xd9\x00&\x01M\x01V\x01\x8c\x01\xc5\x00\xd6\x00\x03\x018\x01W\x01]\x01y\x01\x96\x01\'\x00`\x00\xc9\x00\xd0\x00\x11\x01\x92\x01\x17\x003\x00\x9a\x00\xbb\x00\xbd\x00\xe9\x00\xf5\x00K\x01\xd5\x00\x0b\x00\x16\x00c\x00{\x00\\\x01\x93\x01%\x00/\x00R\x01\x94\x01\x9c\x01\n\x00\x18\x004\x00W\x00r\x00\x86\x00\x99\x00\xa6\x00\xae\x00\xc1\x00\xea\x00\xf0\x00\xff\x00\x1e\x016\x01b\x01w\x01\x83\x01\x1b\x00)\x00Z\x00\xd7\x00\xe4\x001\x01^\x01h\x01\x8c\x00\x92\x00\xa5\x00\xe1\x00\xfb\x00_\x01F\x00\xad\x00\xb0\x00\xb5\x00\xbe\x00Y\x01e\x01j\x01k\x01\x1d\x00(\x00.\x00\x87\x00\x95\x00\xaf\x00\xe5\x00a\x00\x85\x00\xcb\x00\xfc\x00\x0b\x01F\x01f\x00\xc4\x00+\x01\xf3\x002\x00\xab\x00\xfa\x00U\x01\x05\x00B\x00m\x00\xc3\x004\x01B\x01\x03\x00\x1e\x00-\x000\x00;\x00g\x00p\x00\x82\x00\x9c\x00\xa4\x00\xce\x00\xf7\x00\x0c\x01\x1c\x01 \x010\x01q\x01\x81\x01\x84\x01\x8d\x01\r\x00$\x008\x00_\x00n\x00\x89\x00\x96\x00\xa9\x00\x10\x01\'\x01\x99\x01\x9b\x01 \x00l\x00\x84\x00\xf9\x00\x02\x00\x0e\x00\x10\x00>\x00?\x00A\x00G\x00O\x00\xca\x00\xd8\x00@\x01x\x01\x7f\x01\xa0\x01\xa3\x01\xc6\x00\x04\x01\t\x01n\x01}\x01\x1c\x00K\x00\\\x00i\x00\xb6\x00\xdd\x00\x0e\x01\x1f\x013\x017\x01\x06\x00L\x00h\x00\x8f\x00\xc0\x00\xc7\x00\xdc\x00\x18\x01\x1b\x01\x1d\x01)\x01G\x01l\x01\x98\x01\x9f\x01,\x016\x00E\x00s\x00\x8a\x00\x98\x00\xf1\x00\xfd\x00\x1a\x01(\x01N\x01S\x01:\x00@\x00I\x00\xa7\x00\xb7\x00\xde\x00\xf2\x00{\x01\x8b\x00$\x01\x00\x00\x01\x00\x07\x00\x14\x00\x19\x00+\x00C\x00J\x00M\x00R\x00S\x00e\x00\x81\x00\x9b\x00\xb4\x00\xc2\x00\xd1\x00\xdb\x00\x06\x01:\x01;\x01?\x01`\x01v\x01\x82\x01\x88\x01\x8a\x01\x97\x01\xcd\x00\x07\x01"\x019\x01i\x01\x87\x019\x00N\x00|\x00\x8d\x00\x90\x00\xd2\x00\xf6\x00-\x01/\x01a\x01\x9a\x01\x1a\x00\xb2\x00\xee\x00\n\x01%\x01H\x01P\x01d\x01\x8f\x01\x9e\x017\x00b\x00\x9e\x00\xed\x00\x00\x01\x15\x01Z\x01\x90\x01\x0c\x00d\x00\x88\x00\xaa\x00\xb3\x00\xb9\x00\xd4\x00\xe3\x00\xfe\x00I\x01\x8e\x01\x9d\x01'
p64
tp65
basS'names'
p66
(lp67
NaS'region'
p68
asS'levels'
p69
(lp70
g15
(g16
(dp71
g18
g19
(g20
(I0
tp72
g22
tp73
Rp74
(I1
(I52
tp75
g29
I00
(lp76
S'Alabama'
p77
aS'Alaska'
p78
aS'Arizona'
p79
aS'Arkansas'
p80
aS'California'
p81
aS'Colorado'
p82
aS'Connecticut'
p83
aS'Delaware'
p84
aS'District of Columbia'
p85
aS'Florida'
p86
aS'Georgia'
p87
aS'Hawaii'
p88
aS'Idaho'
p89
aS'Illinois'
p90
aS'Indiana'
p91
aS'Iowa'
p92
aS'Kansas'
p93
aS'Kentucky'
p94
aS'Louisiana'
p95
aS'Maine'
p96
aS'Maryland'
p97
aS'Massachusetts'
p98
aS'Michigan'
p99
aS'Minnesota'
p100
aS'Mississippi'
p101
aS'Missouri'
p102
aS'Montana'
p103
aS'Nebraska'
p104
aS'Nevada'
p105
aS'New Hampshire'
p106
aS'New Jersey'
p107
aS'New Mexico'
p108
aS'New York'
p109
aS'North Carolina'
p110
aS'North Dakota'
p111
aS'Ohio'
p112
aS'Oklahoma'
p113
aS'Oregon'
p114
aS'Pennsylvania'
p115
aS'Rhode Island'
p116
aS'South Carolina'
p117
aS'South Dakota'
p118
aS'Tennessee'
p119
aS'Territories'
p120
aS'Texas'
p121
aS'Utah'
p122
aS'Vermont'
p123
aS'Virginia'
p124
aS'Washington'
p125
aS'West Virginia'
p126
aS'Wisconsin'
p127
aS'Wyoming'
p128
atp129
bsg36
Nstp130
Rp131
ag15
(g16
(dp132
g18
g19
(g20
(I0
tp133
g22
tp134
Rp135
(I1
(I420
tp136
g29
I00
(lp137
S'U.S. virgin islands'
p138
aS'abilene'
p139
aS'akron / canton'
p140
aS'albany'
p141
aS'albany '
p142
aS'albuquerque'
p143
aS'altoona-johnstown'
p144
aS'amarillo'
p145
aS'ames'
p146
aS'anchorage / mat-su'
p147
aS'ann arbor'
p148
aS'annapolis'
p149
aS'appleton-oshkosh-FDL'
p150
aS'asheville'
p151
aS'ashtabula'
p152
aS'athens'
p153
aS'athens '
p154
aS'atlanta'
p155
aS'auburn'
p156
aS'augusta'
p157
aS'austin'
p158
aS'bakersfield'
p159
aS'baltimore'
p160
aS'baton rouge'
p161
aS'battle creek'
p162
aS'beaumont / port arthur'
p163
aS'bellingham'
p164
aS'bemidji'
p165
aS'bend'
p166
aS'billings'
p167
aS'binghamton'
p168
aS'birmingham'
p169
aS'bismarck'
p170
aS'bloomington'
p171
aS'bloomington-normal'
p172
aS'boise'
p173
aS'boone'
p174
aS'boston'
p175
aS'boulder'
p176
aS'bowling green'
p177
aS'bozeman'
p178
aS'brainerd'
p179
aS'broward county'
p180
aS'brownsville'
p181
aS'brunswick'
p182
aS'buffalo'
p183
aS'butte'
p184
aS'cape cod / islands'
p185
aS'catskills'
p186
aS'cedar rapids'
p187
aS'central NJ'
p188
aS'central louisiana'
p189
aS'central michigan'
p190
aS'champaign urbana'
p191
aS'charleston'
p192
aS'charleston '
p193
aS'charlotte'
p194
aS'charlottesville'
p195
aS'chattanooga'
p196
aS'chautauqua'
p197
aS'chicago'
p198
aS'chico'
p199
aS'chillicothe'
p200
aS'cincinnati'
p201
aS'clarksville'
p202
aS'cleveland'
p203
aS'clovis / portales'
p204
aS'college station'
p205
aS'colorado springs'
p206
aS'columbia'
p207
aS'columbia / jeff city'
p208
aS'columbus'
p209
aS'columbus '
p210
aS'cookeville'
p211
aS'corpus christi'
p212
aS'corvallis/albany'
p213
aS'cumberland valley'
p214
aS'dallas / fort worth'
p215
aS'danville'
p216
aS'dayton / springfield'
p217
aS'daytona beach'
p218
aS'decatur'
p219
aS'deep east texas'
p220
aS'del rio / eagle pass'
p221
aS'delaware'
p222
aS'denver'
p223
aS'des moines'
p224
aS'detroit metro'
p225
aS'dothan'
p226
aS'dubuque'
p227
aS'duluth / superior'
p228
aS'east idaho'
p229
aS'east oregon'
p230
aS'eastern CO'
p231
aS'eastern CT'
p232
aS'eastern NC'
p233
aS'eastern kentucky'
p234
aS'eastern montana'
p235
aS'eastern panhandle'
p236
aS'eastern shore'
p237
aS'eau claire'
p238
aS'el paso'
p239
aS'elko'
p240
aS'elmira-corning'
p241
aS'erie'
p242
aS'eugene'
p243
aS'evansville'
p244
aS'fairbanks'
p245
aS'fargo / moorhead'
p246
aS'farmington'
p247
aS'fayetteville'
p248
aS'fayetteville '
p249
aS'finger lakes'
p250
aS'flagstaff / sedona'
p251
aS'flint'
p252
aS'florence'
p253
aS'florence / muscle shoals'
p254
aS'florida keys'
p255
aS'fort collins / north CO'
p256
aS'fort dodge'
p257
aS'fort lauderdale'
p258
aS'fort smith'
p259
aS'fort wayne'
p260
aS'frederick'
p261
aS'fredericksburg'
p262
aS'fresno / madera'
p263
aS'ft myers / SW florida'
p264
aS'gadsden-anniston'
p265
aS'gainesville'
p266
aS'galveston'
p267
aS'glens falls'
p268
aS'gold country'
p269
aS'grand forks'
p270
aS'grand island'
p271
aS'grand rapids'
p272
aS'great falls'
p273
aS'green bay'
p274
aS'greensboro'
p275
aS'greenville / upstate'
p276
aS'guam-micronesia'
p277
aS'gulfport / biloxi'
p278
aS'hampton roads'
p279
aS'hanford-corcoran'
p280
aS'harrisburg'
p281
aS'harrisonburg'
p282
aS'hartford'
p283
aS'hattiesburg'
p284
aS'hawaii'
p285
aS'heartland florida'
p286
aS'helena'
p287
aS'hickory / lenoir'
p288
aS'high rockies'
p289
aS'hilton head'
p290
aS'holland'
p291
aS'houma'
p292
aS'houston'
p293
aS'hudson valley'
p294
aS'humboldt county'
p295
aS'huntington-ashland'
p296
aS'huntsville / decatur'
p297
aS'imperial county'
p298
aS'indianapolis'
p299
aS'inland empire'
p300
aS'iowa city'
p301
aS'ithaca'
p302
aS'jackson'
p303
aS'jackson '
p304
aS'jackson  '
p305
aS'jacksonville'
p306
aS'jacksonville '
p307
aS'janesville'
p308
aS'jersey shore'
p309
aS'jonesboro'
p310
aS'joplin'
p311
aS'kalamazoo'
p312
aS'kalispell'
p313
aS'kansas city'
p314
aS'kenai peninsula'
p315
aS'kennewick-pasco-richland'
p316
aS'kenosha-racine'
p317
aS'killeen / temple / ft hood'
p318
aS'kirksville'
p319
aS'klamath falls'
p320
aS'knoxville'
p321
aS'kokomo'
p322
aS'la crosse'
p323
aS'la salle co'
p324
aS'lafayette'
p325
aS'lafayette / west lafayette'
p326
aS'lake charles'
p327
aS'lake of the ozarks'
p328
aS'lakeland'
p329
aS'lancaster'
p330
aS'lansing'
p331
aS'laredo'
p332
aS'las cruces'
p333
aS'las vegas'
p334
aS'lawrence'
p335
aS'lawton'
p336
aS'lehigh valley'
p337
aS'lewiston / clarkston'
p338
aS'lexington'
p339
aS'lima / findlay'
p340
aS'lincoln'
p341
aS'little rock'
p342
aS'logan'
p343
aS'long island'
p344
aS'los angeles'
p345
aS'louisville'
p346
aS'lubbock'
p347
aS'lynchburg'
p348
aS'macon / warner robins'
p349
aS'madison'
p350
aS'maine'
p351
aS'manhattan'
p352
aS'mankato'
p353
aS'mansfield'
p354
aS'mason city'
p355
aS'mattoon-charleston'
p356
aS'mcallen / edinburg'
p357
aS'meadville'
p358
aS'medford-ashland'
p359
aS'memphis'
p360
aS'mendocino county'
p361
aS'merced'
p362
aS'meridian'
p363
aS'miami / dade'
p364
aS'milwaukee'
p365
aS'minneapolis / st paul'
p366
aS'missoula'
p367
aS'mobile'
p368
aS'modesto'
p369
aS'mohave county'
p370
aS'monroe'
p371
aS'monroe '
p372
aS'monterey bay'
p373
aS'montgomery'
p374
aS'morgantown'
p375
aS'moses lake'
p376
aS'muncie / anderson'
p377
aS'muskegon'
p378
aS'myrtle beach'
p379
aS'nashville'
p380
aS'new hampshire'
p381
aS'new haven'
p382
aS'new orleans'
p383
aS'new river valley'
p384
aS'new york city'
p385
aS'north central FL'
p386
aS'north dakota'
p387
aS'north jersey'
p388
aS'north mississippi'
p389
aS'north platte'
p390
aS'northeast SD'
p391
aS'northern WI'
p392
aS'northern michigan'
p393
aS'northern panhandle'
p394
aS'northwest CT'
p395
aS'northwest GA'
p396
aS'northwest KS'
p397
aS'northwest OK'
p398
aS'ocala'
p399
aS'odessa / midland'
p400
aS'ogden-clearfield'
p401
aS'okaloosa / walton'
p402
aS'oklahoma city'
p403
aS'olympic peninsula'
p404
aS'omaha / council bluffs'
p405
aS'oneonta'
p406
aS'orange county'
p407
aS'oregon coast'
p408
aS'orlando'
p409
aS'outer banks'
p410
aS'owensboro'
p411
aS'palm beach county'
p412
aS'palm springs'
p413
aS'panama city'
p414
aS'parkersburg-marietta'
p415
aS'pensacola'
p416
aS'peoria'
p417
aS'philadelphia'
p418
aS'phoenix'
p419
aS'pierre / central SD'
p420
aS'pittsburgh'
p421
aS'plattsburgh-adirondacks'
p422
aS'poconos'
p423
aS'port huron'
p424
aS'portland'
p425
aS'potsdam-canton-massena'
p426
aS'prescott'
p427
aS'provo / orem'
p428
aS'pueblo'
p429
aS'puerto rico'
p430
aS'pullman / moscow'
p431
aS'quad cities'
p432
aS'raleigh / durham / CH'
p433
aS'rapid city / west SD'
p434
aS'reading'
p435
aS'redding'
p436
aS'reno / tahoe'
p437
aS'rhode island'
p438
aS'richmond'
p439
aS'richmond '
p440
aS'roanoke'
p441
aS'rochester'
p442
aS'rochester '
p443
aS'rockford'
p444
aS'roseburg'
p445
aS'roswell / carlsbad'
p446
aS'sacramento'
p447
aS'saginaw-midland-baycity'
p448
aS'salem'
p449
aS'salina'
p450
aS'salt lake city'
p451
aS'san angelo'
p452
aS'san antonio'
p453
aS'san diego'
p454
aS'san francisco bay area'
p455
aS'san luis obispo'
p456
aS'san marcos'
p457
aS'sandusky'
p458
aS'santa barbara'
p459
aS'santa fe / taos'
p460
aS'santa maria'
p461
aS'sarasota-bradenton'
p462
aS'savannah / hinesville'
p463
aS'scottsbluff / panhandle'
p464
aS'scranton / wilkes-barre'
p465
aS'seattle-tacoma'
p466
aS'sheboygan'
p467
aS'show low'
p468
aS'shreveport'
p469
aS'sierra vista'
p470
aS'sioux city'
p471
aS'sioux falls / SE SD'
p472
aS'siskiyou county'
p473
aS'skagit / island / SJI'
p474
aS'south bend / michiana'
p475
aS'south coast'
p476
aS'south dakota'
p477
aS'south florida'
p478
aS'south jersey'
p479
aS'southeast IA'
p480
aS'southeast KS'
p481
aS'southeast alaska'
p482
aS'southeast missouri'
p483
aS'southern WV'
p484
aS'southern illinois'
p485
aS'southern maryland'
p486
aS'southwest KS'
p487
aS'southwest MN'
p488
aS'southwest MS'
p489
aS'southwest TX'
p490
aS'southwest VA'
p491
aS'southwest michigan'
p492
aS'space coast'
p493
aS"spokane / coeur d'alene"
p494
aS'springfield'
p495
aS'springfield '
p496
aS'st augustine'
p497
aS'st cloud'
p498
aS'st george'
p499
aS'st joseph'
p500
aS'st louis'
p501
aS'state college'
p502
aS'statesboro'
p503
aS'stillwater'
p504
aS'stockton'
p505
aS'susanville'
p506
aS'syracuse'
p507
aS'tallahassee'
p508
aS'tampa bay area'
p509
aS'terre haute'
p510
aS'texarkana'
p511
aS'texoma'
p512
aS'the thumb'
p513
aS'toledo'
p514
aS'topeka'
p515
aS'treasure coast'
p516
aS'tri-cities'
p517
aS'tucson'
p518
aS'tulsa'
p519
aS'tuscaloosa'
p520
aS'tuscarawas co'
p521
aS'twin falls'
p522
aS'twin tiers NY/PA'
p523
aS'tyler / east TX'
p524
aS'upper peninsula'
p525
aS'utica-rome-oneida'
p526
aS'valdosta'
p527
aS'ventura county'
p528
aS'vermont'
p529
aS'victoria '
p530
aS'visalia-tulare'
p531
aS'waco'
p532
aS'washington'
p533
aS'waterloo / cedar falls'
p534
aS'watertown'
p535
aS'wausau'
p536
aS'wenatchee'
p537
aS'west virginia (old)'
p538
aS'western IL'
p539
aS'western KY'
p540
aS'western maryland'
p541
aS'western massachusetts'
p542
aS'western slope'
p543
aS'wichita'
p544
aS'wichita falls'
p545
aS'williamsport'
p546
aS'wilmington'
p547
aS'winchester'
p548
aS'winston-salem'
p549
aS'worcester / central MA'
p550
aS'wyoming'
p551
aS'yakima'
p552
aS'york'
p553
aS'youngstown'
p554
aS'yuba-sutter'
p555
aS'yuma'
p556
aS'zanesville / cambridge'
p557
atp558
bsg36
g68
stp559
Rp560
asS'sortorder'
p561
Nstp562
Rp563
a(lp564
g19
(g20
(I0
tp565
g22
tp566
Rp567
(I1
(I2
I420
tp568
g29
I00
(lp569
S'//auburn.craigslist.org/'
p570
aS'//bham.craigslist.org/'
p571
aS'//dothan.craigslist.org/'
p572
aS'//shoals.craigslist.org/'
p573
aS'//gadsden.craigslist.org/'
p574
aS'//huntsville.craigslist.org/'
p575
aS'//mobile.craigslist.org/'
p576
aS'//montgomery.craigslist.org/'
p577
aS'//tuscaloosa.craigslist.org/'
p578
aS'//anchorage.craigslist.org/'
p579
aS'//fairbanks.craigslist.org/'
p580
aS'//kenai.craigslist.org/'
p581
aS'//juneau.craigslist.org/'
p582
aS'//flagstaff.craigslist.org/'
p583
aS'//mohave.craigslist.org/'
p584
aS'//phoenix.craigslist.org/'
p585
aS'//prescott.craigslist.org/'
p586
aS'//showlow.craigslist.org/'
p587
aS'//sierravista.craigslist.org/'
p588
aS'//tucson.craigslist.org/'
p589
aS'//yuma.craigslist.org/'
p590
aS'//fayar.craigslist.org/'
p591
aS'//fortsmith.craigslist.org/'
p592
aS'//jonesboro.craigslist.org/'
p593
aS'//littlerock.craigslist.org/'
p594
aS'//texarkana.craigslist.org/'
p595
aS'//bakersfield.craigslist.org/'
p596
aS'//chico.craigslist.org/'
p597
aS'//fresno.craigslist.org/'
p598
aS'//goldcountry.craigslist.org/'
p599
aS'//hanford.craigslist.org/'
p600
aS'//humboldt.craigslist.org/'
p601
aS'//imperial.craigslist.org/'
p602
aS'//inlandempire.craigslist.org/'
p603
aS'//losangeles.craigslist.org/'
p604
aS'//mendocino.craigslist.org/'
p605
aS'//merced.craigslist.org/'
p606
aS'//modesto.craigslist.org/'
p607
aS'//monterey.craigslist.org/'
p608
aS'//orangecounty.craigslist.org/'
p609
aS'//palmsprings.craigslist.org/'
p610
aS'//redding.craigslist.org/'
p611
aS'//sacramento.craigslist.org/'
p612
aS'//sandiego.craigslist.org/'
p613
aS'//sfbay.craigslist.org/'
p614
aS'//slo.craigslist.org/'
p615
aS'//santabarbara.craigslist.org/'
p616
aS'//santamaria.craigslist.org/'
p617
aS'//siskiyou.craigslist.org/'
p618
aS'//stockton.craigslist.org/'
p619
aS'//susanville.craigslist.org/'
p620
aS'//ventura.craigslist.org/'
p621
aS'//visalia.craigslist.org/'
p622
aS'//yubasutter.craigslist.org/'
p623
aS'//boulder.craigslist.org/'
p624
aS'//cosprings.craigslist.org/'
p625
aS'//denver.craigslist.org/'
p626
aS'//eastco.craigslist.org/'
p627
aS'//fortcollins.craigslist.org/'
p628
aS'//rockies.craigslist.org/'
p629
aS'//pueblo.craigslist.org/'
p630
aS'//westslope.craigslist.org/'
p631
aS'//newlondon.craigslist.org/'
p632
aS'//hartford.craigslist.org/'
p633
aS'//newhaven.craigslist.org/'
p634
aS'//nwct.craigslist.org/'
p635
aS'//delaware.craigslist.org/'
p636
aS'//washingtondc.craigslist.org/'
p637
aS'//miami.craigslist.org/brw'
p638
aS'//daytona.craigslist.org/'
p639
aS'//keys.craigslist.org/'
p640
aS'//fortlauderdale.craigslist.org/'
p641
aS'//fortmyers.craigslist.org/'
p642
aS'//gainesville.craigslist.org/'
p643
aS'//cfl.craigslist.org/'
p644
aS'//jacksonville.craigslist.org/'
p645
aS'//lakeland.craigslist.org/'
p646
aS'//miami.craigslist.org/mdc'
p647
aS'//lakecity.craigslist.org/'
p648
aS'//ocala.craigslist.org/'
p649
aS'//okaloosa.craigslist.org/'
p650
aS'//orlando.craigslist.org/'
p651
aS'//panamacity.craigslist.org/'
p652
aS'//pensacola.craigslist.org/'
p653
aS'//sarasota.craigslist.org/'
p654
aS'//miami.craigslist.org/'
p655
aS'//spacecoast.craigslist.org/'
p656
aS'//staugustine.craigslist.org/'
p657
aS'//tallahassee.craigslist.org/'
p658
aS'//tampa.craigslist.org/'
p659
aS'//treasure.craigslist.org/'
p660
aS'//miami.craigslist.org/pbc'
p661
aS'//albanyga.craigslist.org/'
p662
aS'//athensga.craigslist.org/'
p663
aS'//atlanta.craigslist.org/'
p664
aS'//augusta.craigslist.org/'
p665
aS'//brunswick.craigslist.org/'
p666
aS'//columbusga.craigslist.org/'
p667
aS'//macon.craigslist.org/'
p668
aS'//nwga.craigslist.org/'
p669
aS'//savannah.craigslist.org/'
p670
aS'//statesboro.craigslist.org/'
p671
aS'//valdosta.craigslist.org/'
p672
aS'//honolulu.craigslist.org/'
p673
aS'//boise.craigslist.org/'
p674
aS'//eastidaho.craigslist.org/'
p675
aS'//lewiston.craigslist.org/'
p676
aS'//twinfalls.craigslist.org/'
p677
aS'//bn.craigslist.org/'
p678
aS'//chambana.craigslist.org/'
p679
aS'//chicago.craigslist.org/'
p680
aS'//decatur.craigslist.org/'
p681
aS'//lasalle.craigslist.org/'
p682
aS'//mattoon.craigslist.org/'
p683
aS'//peoria.craigslist.org/'
p684
aS'//rockford.craigslist.org/'
p685
aS'//carbondale.craigslist.org/'
p686
aS'//springfieldil.craigslist.org/'
p687
aS'//quincy.craigslist.org/'
p688
aS'//bloomington.craigslist.org/'
p689
aS'//evansville.craigslist.org/'
p690
aS'//fortwayne.craigslist.org/'
p691
aS'//indianapolis.craigslist.org/'
p692
aS'//kokomo.craigslist.org/'
p693
aS'//tippecanoe.craigslist.org/'
p694
aS'//muncie.craigslist.org/'
p695
aS'//richmondin.craigslist.org/'
p696
aS'//southbend.craigslist.org/'
p697
aS'//terrehaute.craigslist.org/'
p698
aS'//ames.craigslist.org/'
p699
aS'//cedarrapids.craigslist.org/'
p700
aS'//desmoines.craigslist.org/'
p701
aS'//dubuque.craigslist.org/'
p702
aS'//fortdodge.craigslist.org/'
p703
aS'//iowacity.craigslist.org/'
p704
aS'//masoncity.craigslist.org/'
p705
aS'//quadcities.craigslist.org/'
p706
aS'//siouxcity.craigslist.org/'
p707
aS'//ottumwa.craigslist.org/'
p708
aS'//waterloo.craigslist.org/'
p709
aS'//lawrence.craigslist.org/'
p710
aS'//ksu.craigslist.org/'
p711
aS'//nwks.craigslist.org/'
p712
aS'//salina.craigslist.org/'
p713
aS'//seks.craigslist.org/'
p714
aS'//swks.craigslist.org/'
p715
aS'//topeka.craigslist.org/'
p716
aS'//wichita.craigslist.org/'
p717
aS'//bgky.craigslist.org/'
p718
aS'//eastky.craigslist.org/'
p719
aS'//lexington.craigslist.org/'
p720
aS'//louisville.craigslist.org/'
p721
aS'//owensboro.craigslist.org/'
p722
aS'//westky.craigslist.org/'
p723
aS'//batonrouge.craigslist.org/'
p724
aS'//cenla.craigslist.org/'
p725
aS'//houma.craigslist.org/'
p726
aS'//lafayette.craigslist.org/'
p727
aS'//lakecharles.craigslist.org/'
p728
aS'//monroe.craigslist.org/'
p729
aS'//neworleans.craigslist.org/'
p730
aS'//shreveport.craigslist.org/'
p731
aS'//maine.craigslist.org/'
p732
aS'//annapolis.craigslist.org/'
p733
aS'//baltimore.craigslist.org/'
p734
aS'//easternshore.craigslist.org/'
p735
aS'//frederick.craigslist.org/'
p736
aS'//smd.craigslist.org/'
p737
aS'//westmd.craigslist.org/'
p738
aS'//boston.craigslist.org/'
p739
aS'//capecod.craigslist.org/'
p740
aS'//southcoast.craigslist.org/'
p741
aS'//westernmass.craigslist.org/'
p742
aS'//worcester.craigslist.org/'
p743
aS'//annarbor.craigslist.org/'
p744
aS'//battlecreek.craigslist.org/'
p745
aS'//centralmich.craigslist.org/'
p746
aS'//detroit.craigslist.org/'
p747
aS'//flint.craigslist.org/'
p748
aS'//grandrapids.craigslist.org/'
p749
aS'//holland.craigslist.org/'
p750
aS'//jxn.craigslist.org/'
p751
aS'//kalamazoo.craigslist.org/'
p752
aS'//lansing.craigslist.org/'
p753
aS'//monroemi.craigslist.org/'
p754
aS'//muskegon.craigslist.org/'
p755
aS'//nmi.craigslist.org/'
p756
aS'//porthuron.craigslist.org/'
p757
aS'//saginaw.craigslist.org/'
p758
aS'//swmi.craigslist.org/'
p759
aS'//thumb.craigslist.org/'
p760
aS'//up.craigslist.org/'
p761
aS'//bemidji.craigslist.org/'
p762
aS'//brainerd.craigslist.org/'
p763
aS'//duluth.craigslist.org/'
p764
aS'//mankato.craigslist.org/'
p765
aS'//minneapolis.craigslist.org/'
p766
aS'//rmn.craigslist.org/'
p767
aS'//marshall.craigslist.org/'
p768
aS'//stcloud.craigslist.org/'
p769
aS'//gulfport.craigslist.org/'
p770
aS'//hattiesburg.craigslist.org/'
p771
aS'//jackson.craigslist.org/'
p772
aS'//meridian.craigslist.org/'
p773
aS'//northmiss.craigslist.org/'
p774
aS'//natchez.craigslist.org/'
p775
aS'//columbiamo.craigslist.org/'
p776
aS'//joplin.craigslist.org/'
p777
aS'//kansascity.craigslist.org/'
p778
aS'//kirksville.craigslist.org/'
p779
aS'//loz.craigslist.org/'
p780
aS'//semo.craigslist.org/'
p781
aS'//springfield.craigslist.org/'
p782
aS'//stjoseph.craigslist.org/'
p783
aS'//stlouis.craigslist.org/'
p784
aS'//billings.craigslist.org/'
p785
aS'//bozeman.craigslist.org/'
p786
aS'//butte.craigslist.org/'
p787
aS'//greatfalls.craigslist.org/'
p788
aS'//helena.craigslist.org/'
p789
aS'//kalispell.craigslist.org/'
p790
aS'//missoula.craigslist.org/'
p791
aS'//montana.craigslist.org/'
p792
aS'//grandisland.craigslist.org/'
p793
aS'//lincoln.craigslist.org/'
p794
aS'//northplatte.craigslist.org/'
p795
aS'//omaha.craigslist.org/'
p796
aS'//scottsbluff.craigslist.org/'
p797
aS'//elko.craigslist.org/'
p798
aS'//lasvegas.craigslist.org/'
p799
aS'//reno.craigslist.org/'
p800
aS'//nh.craigslist.org/'
p801
aS'//cnj.craigslist.org/'
p802
aS'//jerseyshore.craigslist.org/'
p803
aS'//newjersey.craigslist.org/'
p804
aS'//southjersey.craigslist.org/'
p805
aS'//albuquerque.craigslist.org/'
p806
aS'//clovis.craigslist.org/'
p807
aS'//farmington.craigslist.org/'
p808
aS'//lascruces.craigslist.org/'
p809
aS'//roswell.craigslist.org/'
p810
aS'//santafe.craigslist.org/'
p811
aS'//albany.craigslist.org/'
p812
aS'//binghamton.craigslist.org/'
p813
aS'//buffalo.craigslist.org/'
p814
aS'//catskills.craigslist.org/'
p815
aS'//chautauqua.craigslist.org/'
p816
aS'//elmira.craigslist.org/'
p817
aS'//fingerlakes.craigslist.org/'
p818
aS'//glensfalls.craigslist.org/'
p819
aS'//hudsonvalley.craigslist.org/'
p820
aS'//ithaca.craigslist.org/'
p821
aS'//longisland.craigslist.org/'
p822
aS'//newyork.craigslist.org/'
p823
aS'//oneonta.craigslist.org/'
p824
aS'//plattsburgh.craigslist.org/'
p825
aS'//potsdam.craigslist.org/'
p826
aS'//rochester.craigslist.org/'
p827
aS'//syracuse.craigslist.org/'
p828
aS'//twintiers.craigslist.org/'
p829
aS'//utica.craigslist.org/'
p830
aS'//watertown.craigslist.org/'
p831
aS'//asheville.craigslist.org/'
p832
aS'//boone.craigslist.org/'
p833
aS'//charlotte.craigslist.org/'
p834
aS'//eastnc.craigslist.org/'
p835
aS'//fayetteville.craigslist.org/'
p836
aS'//greensboro.craigslist.org/'
p837
aS'//hickory.craigslist.org/'
p838
aS'//onslow.craigslist.org/'
p839
aS'//outerbanks.craigslist.org/'
p840
aS'//raleigh.craigslist.org/'
p841
aS'//wilmington.craigslist.org/'
p842
aS'//winstonsalem.craigslist.org/'
p843
aS'//bismarck.craigslist.org/'
p844
aS'//fargo.craigslist.org/'
p845
aS'//grandforks.craigslist.org/'
p846
aS'//nd.craigslist.org/'
p847
aS'//akroncanton.craigslist.org/'
p848
aS'//ashtabula.craigslist.org/'
p849
aS'//athensohio.craigslist.org/'
p850
aS'//chillicothe.craigslist.org/'
p851
aS'//cincinnati.craigslist.org/'
p852
aS'//cleveland.craigslist.org/'
p853
aS'//columbus.craigslist.org/'
p854
aS'//dayton.craigslist.org/'
p855
aS'//limaohio.craigslist.org/'
p856
aS'//mansfield.craigslist.org/'
p857
aS'//sandusky.craigslist.org/'
p858
aS'//toledo.craigslist.org/'
p859
aS'//tuscarawas.craigslist.org/'
p860
aS'//youngstown.craigslist.org/'
p861
aS'//zanesville.craigslist.org/'
p862
aS'//lawton.craigslist.org/'
p863
aS'//enid.craigslist.org/'
p864
aS'//oklahomacity.craigslist.org/'
p865
aS'//stillwater.craigslist.org/'
p866
aS'//tulsa.craigslist.org/'
p867
aS'//bend.craigslist.org/'
p868
aS'//corvallis.craigslist.org/'
p869
aS'//eastoregon.craigslist.org/'
p870
aS'//eugene.craigslist.org/'
p871
aS'//klamath.craigslist.org/'
p872
aS'//medford.craigslist.org/'
p873
aS'//oregoncoast.craigslist.org/'
p874
aS'//portland.craigslist.org/'
p875
aS'//roseburg.craigslist.org/'
p876
aS'//salem.craigslist.org/'
p877
aS'//altoona.craigslist.org/'
p878
aS'//chambersburg.craigslist.org/'
p879
aS'//erie.craigslist.org/'
p880
aS'//harrisburg.craigslist.org/'
p881
aS'//lancaster.craigslist.org/'
p882
aS'//allentown.craigslist.org/'
p883
aS'//meadville.craigslist.org/'
p884
aS'//philadelphia.craigslist.org/'
p885
aS'//pittsburgh.craigslist.org/'
p886
aS'//poconos.craigslist.org/'
p887
aS'//reading.craigslist.org/'
p888
aS'//scranton.craigslist.org/'
p889
aS'//pennstate.craigslist.org/'
p890
aS'//williamsport.craigslist.org/'
p891
aS'//york.craigslist.org/'
p892
aS'//providence.craigslist.org/'
p893
aS'//charleston.craigslist.org/'
p894
aS'//columbia.craigslist.org/'
p895
aS'//florencesc.craigslist.org/'
p896
aS'//greenville.craigslist.org/'
p897
aS'//hiltonhead.craigslist.org/'
p898
aS'//myrtlebeach.craigslist.org/'
p899
aS'//nesd.craigslist.org/'
p900
aS'//csd.craigslist.org/'
p901
aS'//rapidcity.craigslist.org/'
p902
aS'//siouxfalls.craigslist.org/'
p903
aS'//sd.craigslist.org/'
p904
aS'//chattanooga.craigslist.org/'
p905
aS'//clarksville.craigslist.org/'
p906
aS'//cookeville.craigslist.org/'
p907
aS'//jacksontn.craigslist.org/'
p908
aS'//knoxville.craigslist.org/'
p909
aS'//memphis.craigslist.org/'
p910
aS'//nashville.craigslist.org/'
p911
aS'//tricities.craigslist.org/'
p912
aS'//micronesia.craigslist.org/'
p913
aS'//puertorico.craigslist.org/'
p914
aS'//virgin.craigslist.org/'
p915
aS'//abilene.craigslist.org/'
p916
aS'//amarillo.craigslist.org/'
p917
aS'//austin.craigslist.org/'
p918
aS'//beaumont.craigslist.org/'
p919
aS'//brownsville.craigslist.org/'
p920
aS'//collegestation.craigslist.org/'
p921
aS'//corpuschristi.craigslist.org/'
p922
aS'//dallas.craigslist.org/'
p923
aS'//nacogdoches.craigslist.org/'
p924
aS'//delrio.craigslist.org/'
p925
aS'//elpaso.craigslist.org/'
p926
aS'//galveston.craigslist.org/'
p927
aS'//houston.craigslist.org/'
p928
aS'//killeen.craigslist.org/'
p929
aS'//laredo.craigslist.org/'
p930
aS'//lubbock.craigslist.org/'
p931
aS'//mcallen.craigslist.org/'
p932
aS'//odessa.craigslist.org/'
p933
aS'//sanangelo.craigslist.org/'
p934
aS'//sanantonio.craigslist.org/'
p935
aS'//sanmarcos.craigslist.org/'
p936
aS'//bigbend.craigslist.org/'
p937
aS'//texoma.craigslist.org/'
p938
aS'//easttexas.craigslist.org/'
p939
aS'//victoriatx.craigslist.org/'
p940
aS'//waco.craigslist.org/'
p941
aS'//wichitafalls.craigslist.org/'
p942
aS'//logan.craigslist.org/'
p943
aS'//ogden.craigslist.org/'
p944
aS'//provo.craigslist.org/'
p945
aS'//saltlakecity.craigslist.org/'
p946
aS'//stgeorge.craigslist.org/'
p947
aS'//vermont.craigslist.org/'
p948
aS'//charlottesville.craigslist.org/'
p949
aS'//danville.craigslist.org/'
p950
aS'//fredericksburg.craigslist.org/'
p951
aS'//norfolk.craigslist.org/'
p952
aS'//harrisonburg.craigslist.org/'
p953
aS'//lynchburg.craigslist.org/'
p954
aS'//blacksburg.craigslist.org/'
p955
aS'//richmond.craigslist.org/'
p956
aS'//roanoke.craigslist.org/'
p957
aS'//swva.craigslist.org/'
p958
aS'//winchester.craigslist.org/'
p959
aS'//bellingham.craigslist.org/'
p960
aS'//kpr.craigslist.org/'
p961
aS'//moseslake.craigslist.org/'
p962
aS'//olympic.craigslist.org/'
p963
aS'//pullman.craigslist.org/'
p964
aS'//seattle.craigslist.org/'
p965
aS'//skagit.craigslist.org/'
p966
aS'//spokane.craigslist.org/'
p967
aS'//wenatchee.craigslist.org/'
p968
aS'//yakima.craigslist.org/'
p969
aS'//charlestonwv.craigslist.org/'
p970
aS'//martinsburg.craigslist.org/'
p971
aS'//huntington.craigslist.org/'
p972
aS'//morgantown.craigslist.org/'
p973
aS'//wheeling.craigslist.org/'
p974
aS'//parkersburg.craigslist.org/'
p975
aS'//swv.craigslist.org/'
p976
aS'//wv.craigslist.org/'
p977
aS'//appleton.craigslist.org/'
p978
aS'//eauclaire.craigslist.org/'
p979
aS'//greenbay.craigslist.org/'
p980
aS'//janesville.craigslist.org/'
p981
aS'//racine.craigslist.org/'
p982
aS'//lacrosse.craigslist.org/'
p983
aS'//madison.craigslist.org/'
p984
aS'//milwaukee.craigslist.org/'
p985
aS'//northernwi.craigslist.org/'
p986
aS'//sheboygan.craigslist.org/'
p987
aS'//wausau.craigslist.org/'
p988
aS'//wyoming.craigslist.org/'
p989
a(S'32.6098566'
p990
S'-85.48078249999999'
p991
tp992
a(S'33.5206608'
p993
S'-86.80248999999999'
p994
tp995
a(S'31.2232313'
p996
S'-85.3904888'
p997
tp998
a(S'34.79981'
p999
S'-87.677251'
p1000
tp1001
a(S'33.7063009'
p1002
S'-85.8586346'
p1003
tp1004
a(S'34.7303688'
p1005
S'-86.5861037'
p1006
tp1007
a(S'30.6953657'
p1008
S'-88.0398912'
p1009
tp1010
a(S'32.3668052'
p1011
S'-86.2999689'
p1012
tp1013
a(S'33.2098407'
p1014
S'-87.56917349999999'
p1015
tp1016
a(S'61.2180556'
p1017
S'-149.9002778'
p1018
tp1019
a(S'64.8377778'
p1020
S'-147.7163889'
p1021
tp1022
a(S'60.55444439999999'
p1023
S'-151.2583333'
p1024
tp1025
a(S'64.20084129999999'
p1026
S'-149.4936733'
p1027
tp1028
a(S'35.1982836'
p1029
S'-111.651302'
p1030
tp1031
a(S'35.2143346'
p1032
S'-113.7632828'
p1033
tp1034
a(S'33.4483771'
p1035
S'-112.0740373'
p1036
tp1037
a(S'34.5400242'
p1038
S'-112.4685025'
p1039
tp1040
a(S'34.2542084'
p1041
S'-110.0298327'
p1042
tp1043
a(S'31.5455001'
p1044
S'-110.2772856'
p1045
tp1046
a(S'32.2217429'
p1047
S'-110.926479'
p1048
tp1049
a(S'32.6926512'
p1050
S'-114.6276916'
p1051
tp1052
a(S'36.0625795'
p1053
S'-94.1574263'
p1054
tp1055
a(S'35.3859242'
p1056
S'-94.39854749999999'
p1057
tp1058
a(S'35.84229670000001'
p1059
S'-90.704279'
p1060
tp1061
a(S'34.7464809'
p1062
S'-92.28959479999999'
p1063
tp1064
a(S'33.4417915'
p1065
S'-94.0376881'
p1066
tp1067
a(S'35.3732921'
p1068
S'-119.0187125'
p1069
tp1070
a(S'39.7284944'
p1071
S'-121.8374777'
p1072
tp1073
a(S'36.7468422'
p1074
S'-119.7725868'
p1075
tp1076
a(S'33.3546786'
p1077
S'-111.4698439'
p1078
tp1079
a(S'36.778261'
p1080
S'-119.4179324'
p1081
tp1082
a(S'40.7450055'
p1083
S'-123.8695086'
p1084
tp1085
a(S'33.0113694'
p1086
S'-115.4733554'
p1087
tp1088
a(S'36.778261'
p1089
S'-119.4179324'
p1090
tp1091
a(S'34.0522342'
p1092
S'-118.2436849'
p1093
tp1094
a(S'39.5500194'
p1095
S'-123.438353'
p1096
tp1097
a(S'37.3021632'
p1098
S'-120.4829677'
p1099
tp1100
a(S'37.63909719999999'
p1101
S'-120.9968782'
p1102
tp1103
a(S'36.8007413'
p1104
S'-121.947311'
p1105
tp1106
a(S'33.7174708'
p1107
S'-117.8311428'
p1108
tp1109
a(S'33.8302961'
p1110
S'-116.5452921'
p1111
tp1112
a(S'40.5865396'
p1113
S'-122.3916754'
p1114
tp1115
a(S'38.5815719'
p1116
S'-121.4943996'
p1117
tp1118
a(S'32.715738'
p1119
S'-117.1610838'
p1120
tp1121
a(S'37.7749295'
p1122
S'-122.4194155'
p1123
tp1124
a(S'35.2827524'
p1125
S'-120.6596156'
p1126
tp1127
a(S'36.778261'
p1128
S'-119.4179324'
p1129
tp1130
a(S'34.9530337'
p1131
S'-120.4357191'
p1132
tp1133
a(S'41.7743261'
p1134
S'-122.5770126'
p1135
tp1136
a(S'37.9577016'
p1137
S'-121.2907796'
p1138
tp1139
a(S'40.4162842'
p1140
S'-120.6530063'
p1141
tp1142
a(S'34.3704884'
p1143
S'-119.1390642'
p1144
tp1145
a(S'36.3302284'
p1146
S'-119.2920585'
p1147
tp1148
a(S'39.1404477'
p1149
S'-121.6169108'
p1150
tp1151
a(S'40.0149856'
p1152
S'-105.2705456'
p1153
tp1154
a(S'38.8338816'
p1155
S'-104.8213634'
p1156
tp1157
a(S'39.7392358'
p1158
S'-104.990251'
p1159
tp1160
a(S'39.7278109'
p1161
S'-104.9133646'
p1162
tp1163
a(S'40.5852602'
p1164
S'-105.084423'
p1165
tp1166
a(S'38.0712415'
p1167
S'-103.8311575'
p1168
tp1169
a(S'38.2544472'
p1170
S'-104.6091409'
p1171
tp1172
a(S'40.25805829999999'
p1173
S'-105.8577108'
p1174
tp1175
a(S'41.2844696'
p1176
S'-72.8730015'
p1177
tp1178
a(S'41.76371109999999'
p1179
S'-72.6850932'
p1180
tp1181
a(S'41.308274'
p1182
S'-72.92788349999999'
p1183
tp1184
a(S'41.6032207'
p1185
S'-73.087749'
p1186
tp1187
a(S'40.2986724'
p1188
S'-83.067965'
p1189
tp1190
a(S'38.9071923'
p1191
S'-77.03687069999999'
p1192
tp1193
a(S'26.190096'
p1194
S'-80.365865'
p1195
tp1196
a(S'29.2108147'
p1197
S'-81.0228331'
p1198
tp1199
a(S'24.5557359'
p1200
S'-81.7826537'
p1201
tp1202
a(S'26.1224386'
p1203
S'-80.13731740000001'
p1204
tp1205
a(S'26.640628'
p1206
S'-81.87230839999999'
p1207
tp1208
a(S'29.6516344'
p1209
S'-82.32482619999999'
p1210
tp1211
a(S'27.3050135'
p1212
S'-81.36668039999999'
p1213
tp1214
a(S'30.3321838'
p1215
S'-81.65565099999999'
p1216
tp1217
a(S'28.0394654'
p1218
S'-81.9498042'
p1219
tp1220
a(S'25.7616798'
p1221
S'-80.1917902'
p1222
tp1223
a(S'30.51057729999999'
p1224
S'-87.2518824'
p1225
tp1226
a(S'29.1871986'
p1227
S'-82.14009229999999'
p1228
tp1229
a(S'30.57734009999999'
p1230
S'-86.6611083'
p1231
tp1232
a(S'28.5383355'
p1233
S'-81.3792365'
p1234
tp1235
a(S'30.1588129'
p1236
S'-85.6602058'
p1237
tp1238
a(S'30.42130899999999'
p1239
S'-87.21691490000001'
p1240
tp1241
a(S'27.3708599'
p1242
S'-82.546943'
p1243
tp1244
a(S'27.6648274'
p1245
S'-81.5157535'
p1246
tp1247
a(S'28.0837676'
p1248
S'-80.74950609999999'
p1249
tp1250
a(S'29.9012437'
p1251
S'-81.31243409999999'
p1252
tp1253
a(S'30.4382559'
p1254
S'-84.28073289999999'
p1255
tp1256
a(S'28.0211856'
p1257
S'-82.64451179999999'
p1258
tp1259
a(S'27.6388275'
p1260
S'-80.38345339999999'
p1261
tp1262
a(S'26.6514503'
p1263
S'-80.2767327'
p1264
tp1265
a(S'31.5785074'
p1266
S'-84.15574099999999'
p1267
tp1268
a(S'33.9519347'
p1269
S'-83.357567'
p1270
tp1271
a(S'33.7489954'
p1272
S'-84.3879824'
p1273
tp1274
a(S'33.4734978'
p1275
S'-82.0105148'
p1276
tp1277
a(S'31.1499528'
p1278
S'-81.49148939999999'
p1279
tp1280
a(S'32.4609764'
p1281
S'-84.9877094'
p1282
tp1283
a(S'32.8406946'
p1284
S'-83.6324022'
p1285
tp1286
a(S'32.1656221'
p1287
S'-82.9000751'
p1288
tp1289
a(S'32.0835407'
p1290
S'-81.09983419999999'
p1291
tp1292
a(S'32.4487876'
p1293
S'-81.7831674'
p1294
tp1295
a(S'30.8327022'
p1296
S'-83.2784851'
p1297
tp1298
a(S'19.5429151'
p1299
S'-155.6658568'
p1300
tp1301
a(S'43.6187102'
p1302
S'-116.2146068'
p1303
tp1304
a(S'44.0682019'
p1305
S'-114.7420408'
p1306
tp1307
a(S'46.4004089'
p1308
S'-117.0011889'
p1309
tp1310
a(S'42.5629668'
p1311
S'-114.4608711'
p1312
tp1313
a(S'40.4844434'
p1314
S'-89.03317939999999'
p1315
tp1316
a(S'40.1105875'
p1317
S'-88.2072697'
p1318
tp1319
a(S'41.8781136'
p1320
S'-87.6297982'
p1321
tp1322
a(S'39.8403147'
p1323
S'-88.9548001'
p1324
tp1325
a(S'41.3621503'
p1326
S'-89.04182489999999'
p1327
tp1328
a(S'39.6035963'
p1329
S'-88.1046932'
p1330
tp1331
a(S'40.6936488'
p1332
S'-89.5889864'
p1333
tp1334
a(S'42.2711311'
p1335
S'-89.09399519999999'
p1336
tp1337
a(S'37.6557172'
p1338
S'-88.99880979999999'
p1339
tp1340
a(S'39.78172130000001'
p1341
S'-89.6501481'
p1342
tp1343
a(S'41.915996'
p1344
S'-87.68703359999999'
p1345
tp1346
a(S'39.165325'
p1347
S'-86.52638569999999'
p1348
tp1349
a(S'37.9715592'
p1350
S'-87.5710898'
p1351
tp1352
a(S'41.079273'
p1353
S'-85.1393513'
p1354
tp1355
a(S'39.768403'
p1356
S'-86.158068'
p1357
tp1358
a(S'40.486427'
p1359
S'-86.13360329999999'
p1360
tp1361
a(S'40.4167022'
p1362
S'-86.87528689999999'
p1363
tp1364
a(S'40.1933767'
p1365
S'-85.3863599'
p1366
tp1367
a(S'39.8289369'
p1368
S'-84.8902382'
p1369
tp1370
a(S'41.6763545'
p1371
S'-86.25198979999999'
p1372
tp1373
a(S'39.4667034'
p1374
S'-87.41390919999999'
p1375
tp1376
a(S'42.0307812'
p1377
S'-93.63191309999999'
p1378
tp1379
a(S'41.9778795'
p1380
S'-91.6656232'
p1381
tp1382
a(S'41.6005448'
p1383
S'-93.6091064'
p1384
tp1385
a(S'42.5005583'
p1386
S'-90.66457179999999'
p1387
tp1388
a(S'42.4974694'
p1389
S'-94.16801579999999'
p1390
tp1391
a(S'41.6611277'
p1392
S'-91.5301683'
p1393
tp1394
a(S'43.1535728'
p1395
S'-93.20103669999999'
p1396
tp1397
a(S'41.66572499999999'
p1398
S'-91.524233'
p1399
tp1400
a(S'42.4999942'
p1401
S'-96.40030689999999'
p1402
tp1403
a(S'41.8780025'
p1404
S'-93.097702'
p1405
tp1406
a(S'42.492786'
p1407
S'-92.34257749999999'
p1408
tp1409
a(S'38.9716689'
p1410
S'-95.2352501'
p1411
tp1412
a(S'39.18360819999999'
p1413
S'-96.57166939999999'
p1414
tp1415
a(S'39.011902'
p1416
S'-98.4842465'
p1417
tp1418
a(S'38.8402805'
p1419
S'-97.61142369999999'
p1420
tp1421
a(S'39.011902'
p1422
S'-98.4842465'
p1423
tp1424
a(S'39.011902'
p1425
S'-98.4842465'
p1426
tp1427
a(S'39.0558235'
p1428
S'-95.68901849999999'
p1429
tp1430
a(S'37.68717609999999'
p1431
S'-97.33005299999999'
p1432
tp1433
a(S'36.9685219'
p1434
S'-86.4808043'
p1435
tp1436
a(S'37.51647579999999'
p1437
S'-82.8067126'
p1438
tp1439
a(S'38.0405837'
p1440
S'-84.5037164'
p1441
tp1442
a(S'38.2526647'
p1443
S'-85.7584557'
p1444
tp1445
a(S'37.7719074'
p1446
S'-87.1111676'
p1447
tp1448
a(S'38.4831366'
p1449
S'-82.66988409999999'
p1450
tp1451
a(S'30.4582829'
p1452
S'-91.1403196'
p1453
tp1454
a(S'41.6414468'
p1455
S'-85.4138274'
p1456
tp1457
a(S'29.5957696'
p1458
S'-90.71953479999999'
p1459
tp1460
a(S'30.2240897'
p1461
S'-92.0198427'
p1462
tp1463
a(S'30.2265949'
p1464
S'-93.2173758'
p1465
tp1466
a(S'32.5093109'
p1467
S'-92.1193012'
p1468
tp1469
a(S'29.95106579999999'
p1470
S'-90.0715323'
p1471
tp1472
a(S'32.5251516'
p1473
S'-93.75017889999999'
p1474
tp1475
a(S'42.1925746'
p1476
S'-76.0610361'
p1477
tp1478
a(S'38.9784453'
p1479
S'-76.4921829'
p1480
tp1481
a(S'39.2903848'
p1482
S'-76.6121893'
p1483
tp1484
a(S'39.0987313'
p1485
S'-76.453976'
p1486
tp1487
a(S'39.41426879999999'
p1488
S'-77.4105409'
p1489
tp1490
a(S'38.4153613'
p1491
S'-76.70406659999999'
p1492
tp1493
a(S'38.3315034'
p1494
S'-75.1068511'
p1495
tp1496
a(S'42.3600825'
p1497
S'-71.0588801'
p1498
tp1499
a(S'41.69909579999999'
p1500
S'-70.32091129999999'
p1501
tp1502
a(S'41.6419786'
p1503
S'-70.21147879999999'
p1504
tp1505
a(S'42.1014831'
p1506
S'-72.589811'
p1507
tp1508
a(S'42.2625932'
p1509
S'-71.8022934'
p1510
tp1511
a(S'42.2808256'
p1512
S'-83.7430378'
p1513
tp1514
a(S'42.3211522'
p1515
S'-85.17971419999999'
p1516
tp1517
a(S'47.4071372'
p1518
S'-88.20066039999999'
p1519
tp1520
a(S'44.3148443'
p1521
S'-85.60236429999999'
p1522
tp1523
a(S'43.0125274'
p1524
S'-83.6874562'
p1525
tp1526
a(S'42.9633599'
p1527
S'-85.6680863'
p1528
tp1529
a(S'42.7875235'
p1530
S'-86.10893009999999'
p1531
tp1532
a(S'42.245869'
p1533
S'-84.40134619999999'
p1534
tp1535
a(S'42.2917069'
p1536
S'-85.5872286'
p1537
tp1538
a(S'42.732535'
p1539
S'-84.5555347'
p1540
tp1541
a(S'41.9164343'
p1542
S'-83.3977101'
p1543
tp1544
a(S'43.2341813'
p1545
S'-86.24839209999999'
p1546
tp1547
a(S'44.1966156'
p1548
S'-84.07991020000001'
p1549
tp1550
a(S'42.9708634'
p1551
S'-82.42491419999999'
p1552
tp1553
a(S'43.6049695'
p1554
S'-84.18378749999999'
p1555
tp1556
a(S'44.3148443'
p1557
S'-85.60236429999999'
p1558
tp1559
a(S'41.6198662'
p1560
S'-87.1926739'
p1561
tp1562
a(S'43.4501005'
p1563
S'-87.22201869999999'
p1564
tp1565
a(S'47.4875361'
p1566
S'-94.8858492'
p1567
tp1568
a(S'46.3526733'
p1569
S'-94.2020084'
p1570
tp1571
a(S'46.78667189999999'
p1572
S'-92.10048519999999'
p1573
tp1574
a(S'44.1635775'
p1575
S'-93.99939959999999'
p1576
tp1577
a(S'44.977753'
p1578
S'-93.2650108'
p1579
tp1580
a(S'44.0121221'
p1581
S'-92.4801989'
p1582
tp1583
a(S'46.729553'
p1584
S'-94.6858998'
p1585
tp1586
a(S'45.5579451'
p1587
S'-94.16324039999999'
p1588
tp1589
a(S'30.3674198'
p1590
S'-89.0928155'
p1591
tp1592
a(S'31.3271189'
p1593
S'-89.29033919999999'
p1594
tp1595
a(S'32.2987573'
p1596
S'-90.1848103'
p1597
tp1598
a(S'32.3643098'
p1599
S'-88.703656'
p1600
tp1601
a(S'32.3546679'
p1602
S'-89.3985283'
p1603
tp1604
a(S'32.3546679'
p1605
S'-89.3985283'
p1606
tp1607
a(S'38.9517053'
p1608
S'-92.3340724'
p1609
tp1610
a(S'37.08422710000001'
p1611
S'-94.51328099999999'
p1612
tp1613
a(S'39.0997265'
p1614
S'-94.5785667'
p1615
tp1616
a(S'40.19475389999999'
p1617
S'-92.5832496'
p1618
tp1619
a(S'38.13800030000001'
p1620
S'-92.8103551'
p1621
tp1622
a(S'37.9642529'
p1623
S'-91.83183339999999'
p1624
tp1625
a(S'37.2089572'
p1626
S'-93.29229889999999'
p1627
tp1628
a(S'39.7674578'
p1629
S'-94.84668099999999'
p1630
tp1631
a(S'38.6270025'
p1632
S'-90.19940419999999'
p1633
tp1634
a(S'45.7832856'
p1635
S'-108.5006904'
p1636
tp1637
a(S'45.6769979'
p1638
S'-111.0429339'
p1639
tp1640
a(S'46.0038232'
p1641
S'-112.5347776'
p1642
tp1643
a(S'47.4941836'
p1644
S'-111.2833449'
p1645
tp1646
a(S'46.5883707'
p1647
S'-112.0245054'
p1648
tp1649
a(S'48.1919889'
p1650
S'-114.3168131'
p1651
tp1652
a(S'46.87871759999999'
p1653
S'-113.996586'
p1654
tp1655
a(S'46.6095274'
p1656
S'-111.9194649'
p1657
tp1658
a(S'40.9263957'
p1659
S'-98.34201179999999'
p1660
tp1661
a(S'40.8257625'
p1662
S'-96.6851982'
p1663
tp1664
a(S'41.1402759'
p1665
S'-100.7601454'
p1666
tp1667
a(S'41.2523634'
p1668
S'-95.99798829999999'
p1669
tp1670
a(S'41.8666341'
p1671
S'-103.6671662'
p1672
tp1673
a(S'40.8324211'
p1674
S'-115.7631232'
p1675
tp1676
a(S'36.1699412'
p1677
S'-115.1398296'
p1678
tp1679
a(S'39.5296329'
p1680
S'-119.8138027'
p1681
tp1682
a(S'43.1938516'
p1683
S'-71.5723953'
p1684
tp1685
a(S'39.829728'
p1686
S'-74.9789595'
p1687
tp1688
a(S'40.7306725'
p1689
S'-74.03281799999999'
p1690
tp1691
a(S'40.75313939999999'
p1692
S'-74.04749289999999'
p1693
tp1694
a(S'40.74934640000001'
p1695
S'-74.0470483'
p1696
tp1697
a(S'35.0853336'
p1698
S'-106.6055534'
p1699
tp1700
a(S'34.4047987'
p1701
S'-103.2052272'
p1702
tp1703
a(S'36.72805830000001'
p1704
S'-108.2186856'
p1705
tp1706
a(S'32.3199396'
p1707
S'-106.7636538'
p1708
tp1709
a(S'33.3942655'
p1710
S'-104.5230242'
p1711
tp1712
a(S'35.6869752'
p1713
S'-105.937799'
p1714
tp1715
a(S'42.6525793'
p1716
S'-73.7562317'
p1717
tp1718
a(S'42.09868669999999'
p1719
S'-75.91797380000001'
p1720
tp1721
a(S'42.88644679999999'
p1722
S'-78.8783689'
p1723
tp1724
a(S'42.2173102'
p1725
S'-73.8645734'
p1726
tp1727
a(S'42.209774'
p1728
S'-79.46684449999999'
p1729
tp1730
a(S'42.1328107'
p1731
S'-76.8264562'
p1732
tp1733
a(S'42.7238362'
p1734
S'-76.9297354'
p1735
tp1736
a(S'43.3095164'
p1737
S'-73.6440058'
p1738
tp1739
a(S'41.9209018'
p1740
S'-73.9612887'
p1741
tp1742
a(S'42.4439614'
p1743
S'-76.5018807'
p1744
tp1745
a(S'40.789142'
p1746
S'-73.13496099999999'
p1747
tp1748
a(S'40.7127837'
p1749
S'-74.0059413'
p1750
tp1751
a(S'42.4528571'
p1752
S'-75.0637746'
p1753
tp1754
a(S'40.7127837'
p1755
S'-74.0059413'
p1756
tp1757
a(S'44.659281'
p1758
S'-74.971554'
p1759
tp1760
a(S'43.16103'
p1761
S'-77.61092189999999'
p1762
tp1763
a(S'43.0481221'
p1764
S'-76.14742439999999'
p1765
tp1766
a(S'40.7127837'
p1767
S'-74.0059413'
p1768
tp1769
a(S'43.160171'
p1770
S'-75.33797799999999'
p1771
tp1772
a(S'43.9747838'
p1773
S'-75.91075649999999'
p1774
tp1775
a(S'35.5950581'
p1776
S'-82.5514869'
p1777
tp1778
a(S'36.216795'
p1779
S'-81.67455169999999'
p1780
tp1781
a(S'35.2270869'
p1782
S'-80.8431267'
p1783
tp1784
a(S'35.9707049'
p1785
S'-77.92803239999999'
p1786
tp1787
a(S'35.0526641'
p1788
S'-78.87835849999999'
p1789
tp1790
a(S'36.0726354'
p1791
S'-79.7919754'
p1792
tp1793
a(S'35.7344538'
p1794
S'-81.3444573'
p1795
tp1796
a(S'34.7540524'
p1797
S'-77.4302414'
p1798
tp1799
a(S'35.5584932'
p1800
S'-75.4665158'
p1801
tp1802
a(S'35.7795897'
p1803
S'-78.6381787'
p1804
tp1805
a(S'34.2257255'
p1806
S'-77.9447102'
p1807
tp1808
a(S'36.09985959999999'
p1809
S'-80.24421599999999'
p1810
tp1811
a(S'46.8083268'
p1812
S'-100.7837392'
p1813
tp1814
a(S'46.8771863'
p1815
S'-96.7898034'
p1816
tp1817
a(S'47.9252568'
p1818
S'-97.0328547'
p1819
tp1820
a(S'47.5514926'
p1821
S'-101.0020119'
p1822
tp1823
a(S'41.0814447'
p1824
S'-81.51900529999999'
p1825
tp1826
a(S'41.8650534'
p1827
S'-80.7898089'
p1828
tp1829
a(S'39.3292396'
p1830
S'-82.1012554'
p1831
tp1832
a(S'39.3331197'
p1833
S'-82.9824019'
p1834
tp1835
a(S'39.1031182'
p1836
S'-84.5120196'
p1837
tp1838
a(S'41.49932'
p1839
S'-81.6943605'
p1840
tp1841
a(S'39.9611755'
p1842
S'-82.99879419999999'
p1843
tp1844
a(S'39.7589478'
p1845
S'-84.1916069'
p1846
tp1847
a(S'40.742551'
p1848
S'-84.1052256'
p1849
tp1850
a(S'40.75839'
p1851
S'-82.5154471'
p1852
tp1853
a(S'41.4489396'
p1854
S'-82.7079605'
p1855
tp1856
a(S'41.6639383'
p1857
S'-83.55521200000001'
p1858
tp1859
a(S'40.3978972'
p1860
S'-81.42789839999999'
p1861
tp1862
a(S'41.0997803'
p1863
S'-80.6495194'
p1864
tp1865
a(S'39.9403453'
p1866
S'-82.01319239999999'
p1867
tp1868
a(S'34.6035669'
p1869
S'-98.39592909999999'
p1870
tp1871
a(S'35.0077519'
p1872
S'-97.092877'
p1873
tp1874
a(S'35.4675602'
p1875
S'-97.5164276'
p1876
tp1877
a(S'36.1156071'
p1878
S'-97.0583681'
p1879
tp1880
a(S'36.1539816'
p1881
S'-95.99277500000001'
p1882
tp1883
a(S'44.0581728'
p1884
S'-121.3153096'
p1885
tp1886
a(S'44.5645659'
p1887
S'-123.2620435'
p1888
tp1889
a(S'43.8041334'
p1890
S'-120.5542012'
p1891
tp1892
a(S'44.0520691'
p1893
S'-123.0867536'
p1894
tp1895
a(S'42.224867'
p1896
S'-121.7816704'
p1897
tp1898
a(S'42.3249759'
p1899
S'-122.8577528'
p1900
tp1901
a(S'44.1217838'
p1902
S'-124.1263651'
p1903
tp1904
a(S'45.5230622'
p1905
S'-122.6764816'
p1906
tp1907
a(S'43.216505'
p1908
S'-123.3417381'
p1909
tp1910
a(S'44.9428975'
p1911
S'-123.0350963'
p1912
tp1913
a(S'40.3555683'
p1914
S'-78.5164333'
p1915
tp1916
a(S'39.8110168'
p1917
S'-78.6341996'
p1918
tp1919
a(S'42.12922409999999'
p1920
S'-80.085059'
p1921
tp1922
a(S'40.2731911'
p1923
S'-76.8867008'
p1924
tp1925
a(S'40.0378755'
p1926
S'-76.30551440000001'
p1927
tp1928
a(S'40.6514123'
p1929
S'-75.4075532'
p1930
tp1931
a(S'41.6414438'
p1932
S'-80.15144839999999'
p1933
tp1934
a(S'39.9525839'
p1935
S'-75.1652215'
p1936
tp1937
a(S'40.44062479999999'
p1938
S'-79.9958864'
p1939
tp1940
a(S'41.1112001'
p1941
S'-75.38629539999999'
p1942
tp1943
a(S'40.3356483'
p1944
S'-75.9268747'
p1945
tp1946
a(S'41.408969'
p1947
S'-75.66241219999999'
p1948
tp1949
a(S'40.7933949'
p1950
S'-77.8600012'
p1951
tp1952
a(S'41.2411897'
p1953
S'-77.00107860000001'
p1954
tp1955
a(S'39.9625984'
p1956
S'-76.727745'
p1957
tp1958
a(S'41.5800945'
p1959
S'-71.47742909999999'
p1960
tp1961
a(S'32.7764749'
p1962
S'-79.93105120000001'
p1963
tp1964
a(S'34.0007104'
p1965
S'-81.0348144'
p1966
tp1967
a(S'34.1954331'
p1968
S'-79.7625625'
p1969
tp1970
a(S'34.85261759999999'
p1971
S'-82.3940104'
p1972
tp1973
a(S'32.216316'
p1974
S'-80.752608'
p1975
tp1976
a(S'33.6890603'
p1977
S'-78.8866943'
p1978
tp1979
a(S'43.9695148'
p1980
S'-99.9018131'
p1981
tp1982
a(S'44.3683156'
p1983
S'-100.3509665'
p1984
tp1985
a(S'44.0805434'
p1986
S'-103.2310149'
p1987
tp1988
a(S'43.5445959'
p1989
S'-96.73110340000001'
p1990
tp1991
a(S'43.9695148'
p1992
S'-99.9018131'
p1993
tp1994
a(S'35.0456297'
p1995
S'-85.30968009999999'
p1996
tp1997
a(S'36.5297706'
p1998
S'-87.3594528'
p1999
tp2000
a(S'36.162839'
p2001
S'-85.5016423'
p2002
tp2003
a(S'35.6145169'
p2004
S'-88.81394689999999'
p2005
tp2006
a(S'35.9606384'
p2007
S'-83.9207392'
p2008
tp2009
a(S'35.1495343'
p2010
S'-90.04898009999999'
p2011
tp2012
a(S'36.1626638'
p2013
S'-86.7816016'
p2014
tp2015
a(S'36.4497453'
p2016
S'-82.5316057'
p2017
tp2018
a(S'13.444304'
p2019
S'144.793731'
p2020
tp2021
a(S'18.464345'
p2022
S'-66.1179714'
p2023
tp2024
a(S'17.7562986'
p2025
S'-64.5755135'
p2026
tp2027
a(S'32.4487364'
p2028
S'-99.73314390000002'
p2029
tp2030
a(S'35.2219971'
p2031
S'-101.8312969'
p2032
tp2033
a(S'30.267153'
p2034
S'-97.74306079999999'
p2035
tp2036
a(S'30.080174'
p2037
S'-94.1265562'
p2038
tp2039
a(S'25.9017472'
p2040
S'-97.4974838'
p2041
tp2042
a(S'30.627977'
p2043
S'-96.3344068'
p2044
tp2045
a(S'27.8005828'
p2046
S'-97.39638099999999'
p2047
tp2048
a(S'32.7766642'
p2049
S'-96.79698789999999'
p2050
tp2051
a(S'31.0773902'
p2052
S'-98.9958802'
p2053
tp2054
a(S'29.3708857'
p2055
S'-100.8958674'
p2056
tp2057
a(S'31.7618778'
p2058
S'-106.4850217'
p2059
tp2060
a(S'29.3013479'
p2061
S'-94.7976958'
p2062
tp2063
a(S'29.7604267'
p2064
S'-95.3698028'
p2065
tp2066
a(S'31.1171194'
p2067
S'-97.72779589999999'
p2068
tp2069
a(S'27.5305671'
p2070
S'-99.48032409999999'
p2071
tp2072
a(S'33.5778631'
p2073
S'-101.8551665'
p2074
tp2075
a(S'26.2034071'
p2076
S'-98.23001239999999'
p2077
tp2078
a(S'31.8456816'
p2079
S'-102.3676431'
p2080
tp2081
a(S'31.4637723'
p2082
S'-100.4370375'
p2083
tp2084
a(S'29.4241219'
p2085
S'-98.49362819999999'
p2086
tp2087
a(S'29.8832749'
p2088
S'-97.9413941'
p2089
tp2090
a(S'31.9685988'
p2091
S'-99.9018131'
p2092
tp2093
a(S'32.9628999'
p2094
S'-96.333912'
p2095
tp2096
a(S'32.3512601'
p2097
S'-95.30106239999999'
p2098
tp2099
a(S'28.8052674'
p2100
S'-97.0035982'
p2101
tp2102
a(S'31.549333'
p2103
S'-97.1466695'
p2104
tp2105
a(S'33.9137085'
p2106
S'-98.49338729999999'
p2107
tp2108
a(S'41.7369803'
p2109
S'-111.8338359'
p2110
tp2111
a(S'41.2244981'
p2112
S'-111.9807246'
p2113
tp2114
a(S'40.2338438'
p2115
S'-111.6585337'
p2116
tp2117
a(S'40.7607793'
p2118
S'-111.8910474'
p2119
tp2120
a(S'37.0965278'
p2121
S'-113.5684164'
p2122
tp2123
a(S'43.0722172'
p2124
S'-89.7856786'
p2125
tp2126
a(S'38.0293059'
p2127
S'-78.47667810000002'
p2128
tp2129
a(S'36.5859718'
p2130
S'-79.39502279999999'
p2131
tp2132
a(S'38.3031837'
p2133
S'-77.4605399'
p2134
tp2135
a(S'36.0772906'
p2136
S'-76.61714809999999'
p2137
tp2138
a(S'38.4495688'
p2139
S'-78.8689155'
p2140
tp2141
a(S'37.4137536'
p2142
S'-79.14224639999999'
p2143
tp2144
a(S'37.3538544'
p2145
S'-80.9348912'
p2146
tp2147
a(S'37.5407246'
p2148
S'-77.43604809999999'
p2149
tp2150
a(S'37.2709704'
p2151
S'-79.9414266'
p2152
tp2153
a(S'37.4315734'
p2154
S'-78.6568942'
p2155
tp2156
a(S'39.1856597'
p2157
S'-78.1633341'
p2158
tp2159
a(S'48.74908'
p2160
S'-122.4781473'
p2161
tp2162
a(S'46.3245547'
p2163
S'-119.0254257'
p2164
tp2165
a(S'47.1301417'
p2166
S'-119.2780771'
p2167
tp2168
a(S'47.8021067'
p2169
S'-123.6043524'
p2170
tp2171
a(S'46.7297771'
p2172
S'-117.1817377'
p2173
tp2174
a(S'47.6025001'
p2175
S'-122.3385759'
p2176
tp2177
a(S'48.4241961'
p2178
S'-121.7114362'
p2179
tp2180
a(S'47.6587802'
p2181
S'-117.4260466'
p2182
tp2183
a(S'47.4234599'
p2184
S'-120.3103494'
p2185
tp2186
a(S'46.6020711'
p2187
S'-120.5058987'
p2188
tp2189
a(S'38.3498195'
p2190
S'-81.6326234'
p2191
tp2192
a(S'38.5976262'
p2193
S'-80.4549026'
p2194
tp2195
a(S'38.4714882'
p2196
S'-82.6814031'
p2197
tp2198
a(S'39.629526'
p2199
S'-79.95589679999999'
p2200
tp2201
a(S'38.5976262'
p2202
S'-80.4549026'
p2203
tp2204
a(S'39.2637209'
p2205
S'-81.555488'
p2206
tp2207
a(S'38.6071338'
p2208
S'-80.8322428'
p2209
tp2210
a(S'39.1352992'
p2211
S'-78.9502442'
p2212
tp2213
a(S'43.7844397'
p2214
S'-88.7878678'
p2215
tp2216
a(S'44.811349'
p2217
S'-91.4984941'
p2218
tp2219
a(S'44.51915899999999'
p2220
S'-88.01982599999999'
p2221
tp2222
a(S'42.6827885'
p2223
S'-89.0187222'
p2224
tp2225
a(S'42.5847425'
p2226
S'-87.82118539999999'
p2227
tp2228
a(S'43.8013556'
p2229
S'-91.23958069999999'
p2230
tp2231
a(S'43.0730517'
p2232
S'-89.4012302'
p2233
tp2234
a(S'43.0389025'
p2235
S'-87.9064736'
p2236
tp2237
a(S'44.2387739'
p2238
S'-88.4645709'
p2239
tp2240
a(S'43.7508284'
p2241
S'-87.71453'
p2242
tp2243
a(S'44.9591352'
p2244
S'-89.63012209999999'
p2245
tp2246
a(S'42.0591801'
p2247
S'-91.0073701'
p2248
tp2249
atp2250
ba(lp2251
g15
(g16
(dp2252
g18
g19
(g20
(I0
tp2253
g22
tp2254
Rp2255
(I1
(I2
tp2256
g29
I00
(lp2257
g33
ag34
atp2258
bsg36
Nstp2259
Rp2260
a(dp2261
S'0.14.1'
p2262
(dp2263
S'axes'
p2264
g14
sS'blocks'
p2265
(lp2266
(dp2267
S'mgr_locs'
p2268
c__builtin__
slice
p2269
(I0
I2
I1
tp2270
Rp2271
sS'values'
p2272
g567
sasstp2273
bsb.